; Function Attrs: mustprogress uwtable
define noundef signext range(i8 0, 2) i8 @_ZN6icu_7716BytesTrieBuilder14ensureCapacityEi(ptr noundef nonnull align 8 captures(none) dereferenceable(56) %0, i32 noundef %1) local_unnamed_addr #1 align 2 {
  %3 = getelementptr inbounds nuw i8, ptr %0, i64 40
  %4 = load ptr, ptr %3, align 8, !tbaa !31
  %5 = icmp eq ptr %4, null
  br i1 %5, label %28, label %6

6:                                                ; preds = %2
  %7 = getelementptr inbounds nuw i8, ptr %0, i64 48
  %8 = load i32, ptr %7, align 8, !tbaa !35
  %9 = icmp sgt i32 %1, %8
  br i1 %9, label %.preheader, label %28

.preheader:                                       ; preds = %6, %.preheader
  %.013 = phi i32 [ %10, %.preheader ], [ %8, %6 ]
  %10 = shl nsw i32 %.013, 1
  %.not = icmp sgt i32 %10, %1
  br i1 %.not, label %11, label %.preheader, !llvm.loop !60

11:                                               ; preds = %.preheader
  %12 = sext i32 %10 to i64
  %13 = tail call noalias ptr @uprv_malloc_77(i64 noundef %12) #20
  %14 = icmp eq ptr %13, null
  br i1 %14, label %26, label %.thread

.thread:                                          ; preds = %11
  %15 = getelementptr inbounds nuw i8, ptr %0, i64 52
  %16 = load i32, ptr %15, align 4, !tbaa !32
  %17 = sub nsw i32 %10, %16
  %18 = sext i32 %17 to i64
  %19 = getelementptr inbounds i8, ptr %13, i64 %18
  %20 = load ptr, ptr %3, align 8, !tbaa !31
  %21 = load i32, ptr %7, align 8, !tbaa !35
  %22 = sub nsw i32 %21, %16
  %23 = sext i32 %22 to i64
  %24 = getelementptr inbounds i8, ptr %20, i64 %23
  %25 = sext i32 %16 to i64
  tail call void @llvm.memcpy.p0.p0.i64(ptr nonnull align 1 %19, ptr align 1 %24, i64 %25, i1 false)
  br label %.sink.split

26:                                               ; preds = %11
  %27 = load ptr, ptr %3, align 8, !tbaa !31
  br label %.sink.split

.sink.split:                                      ; preds = %26, %.thread
  %.sink22 = phi ptr [ %20, %.thread ], [ %27, %26 ]
  %.sink = phi ptr [ %13, %.thread ], [ null, %26 ]
  %.lcssa.sink = phi i32 [ %10, %.thread ], [ 0, %26 ]
  %.012.ph = phi i8 [ 1, %.thread ], [ 0, %26 ]
  tail call void @uprv_free_77(ptr noundef %.sink22)
  store ptr %.sink, ptr %3, align 8, !tbaa !31
  store i32 %.lcssa.sink, ptr %7, align 8, !tbaa !35
  br label %28

28:                                               ; preds = %.sink.split, %6, %2
  %.012 = phi i8 [ 0, %2 ], [ 1, %6 ], [ %.012.ph, %.sink.split ]
  ret i8 %.012
}